; Function Attrs: mustprogress nounwind uwtable
define dso_local noundef zeroext i1 @_ZNK31cmGeneratorExpressionDAGChecker24EvaluatingLinkerLauncherEv(ptr noundef nonnull align 8 dereferenceable(126) %0) local_unnamed_addr #4 align 2 personality ptr @__gxx_personality_v0 {
  br label %2

2:                                                ; preds = %2, %1
  %.05.i = phi ptr [ %0, %1 ], [ %.0.i, %2 ]
  %.0.i = load ptr, ptr %.05.i, align 8
  %.not.i = icmp eq ptr %.0.i, null
  br i1 %.not.i, label %_ZNK31cmGeneratorExpressionDAGChecker3TopEv.exit, label %2, !llvm.loop !5

_ZNK31cmGeneratorExpressionDAGChecker3TopEv.exit: ; preds = %2
  %3 = getelementptr inbounds nuw i8, ptr %.05.i, i64 16
  %4 = tail call { i64, ptr } @_ZNKSt7__cxx1112basic_stringIcSt11char_traitsIcESaIcEEcvSt17basic_string_viewIcS2_EEv(ptr noundef nonnull align 8 dereferenceable(32) %3) #19
  %5 = extractvalue { i64, ptr } %4, 0
  %6 = icmp ugt i64 %5, 16
  br i1 %6, label %_ZNSt11char_traitsIcE7compareEPKcS2_m.exit.i.i, label %_ZSteqIcSt11char_traitsIcEEbSt17basic_string_viewIT_T0_ES5_.exit

_ZNSt11char_traitsIcE7compareEPKcS2_m.exit.i.i:   ; preds = %_ZNK31cmGeneratorExpressionDAGChecker3TopEv.exit
  %7 = extractvalue { i64, ptr } %4, 1
  %8 = getelementptr i8, ptr %7, i64 %5
  %9 = getelementptr i8, ptr %8, i64 -16
  %bcmp.i = tail call i32 @bcmp(ptr noundef nonnull dereferenceable(16) %9, ptr noundef nonnull dereferenceable(16) @.str.19, i64 16)
  %10 = icmp eq i32 %bcmp.i, 0
  br label %_ZSteqIcSt11char_traitsIcEEbSt17basic_string_viewIT_T0_ES5_.exit

_ZSteqIcSt11char_traitsIcEEbSt17basic_string_viewIT_T0_ES5_.exit: ; preds = %_ZNSt11char_traitsIcE7compareEPKcS2_m.exit.i.i, %_ZNK31cmGeneratorExpressionDAGChecker3TopEv.exit
  %11 = phi i1 [ false, %_ZNK31cmGeneratorExpressionDAGChecker3TopEv.exit ], [ %10, %_ZNSt11char_traitsIcE7compareEPKcS2_m.exit.i.i ]
  ret i1 %11
}